; Function Attrs: nounwind uwtable
define i32 @llhttp__on_message_begin(ptr noundef %0, ptr noundef readnone captures(none) %1, ptr noundef readnone captures(none) %2) local_unnamed_addr #0 {
  %4 = getelementptr inbounds nuw i8, ptr %0, i64 88
  %5 = load ptr, ptr %4, align 8, !tbaa !12
  %6 = icmp eq ptr %5, null
  br i1 %6, label %12, label %7

7:                                                ; preds = %3
  %8 = load ptr, ptr %5, align 8, !tbaa !26
  %9 = icmp eq ptr %8, null
  br i1 %9, label %12, label %10

10:                                               ; preds = %7
  %11 = tail call i32 %8(ptr noundef nonnull %0) #10
  br label %12

12:                                               ; preds = %3, %7, %10
  %.0 = phi i32 [ %11, %10 ], [ 0, %7 ], [ 0, %3 ]
  ret i32 %.0
}